target datalayout = "e-m:e-p270:32:32-p271:32:32-p272:64:64-i64:64-i128:128-f80:128-n8:16:32:64-S128"
target triple = "x86_64-pc-linux-gnu"

%class.OopHandle = type { ptr }
%"class.MemAllocator::Allocation" = type <{ ptr, ptr, ptr, i8, i8, [6 x i8], i64, i8, [7 x i8] }>
%class.JavaThread = type { %class.Thread, i8, %class.OopHandle, %class.OopHandle, %class.OopHandle, %class.OopHandle, %class.JavaFrameAnchor, ptr, %struct.JNIEnv_, ptr, ptr, ptr, ptr, ptr, ptr, ptr, ptr, %class.MemRegion, ptr, i8, ptr, ptr, ptr, i32, i32, %"struct.SafepointMechanism::ThreadData", ptr, ptr, i32, i32, i8, i8, i8, i8, i8, i8, i8, i32, i8, i32, i8, i8, i64, %union.anon, ptr, ptr, i64, i64, ptr, ptr, %class.StackOverflow, ptr, ptr, ptr, i32, i32, ptr, i32, i32, i32, ptr, ptr, i32, i64, i64, %class.StackWatermarks, %class.HandshakeState, ptr, i32, ptr, i32, i32, ptr, %class.Parker, ptr, ptr, %class.LockStack }
%class.Thread = type { %class.ThreadShadow.base, i64, [43 x i64], ptr, ptr, i32, ptr, i64, i64, %class.ThreadLocalAllocBuffer, i64, %class.ThreadHeapSampler, %class.ThreadStatisticalInfo, %class.JfrThreadLocal, ptr, ptr, ptr, ptr, ptr, ptr, i64, i32, i32, ptr, i32, i32, i32, i32, i8, ptr }
%class.ThreadShadow.base = type <{ ptr, ptr, ptr, i32 }>
%class.ThreadLocalAllocBuffer = type <{ ptr, ptr, ptr, ptr, ptr, i64, i64, i64, i64, i32, i32, i32, i32, i64, %class.AdaptiveWeightedAverage, [4 x i8] }>
%class.AdaptiveWeightedAverage = type { float, i32, i32, i8, float }
%class.ThreadHeapSampler = type { i64 }
%class.ThreadStatisticalInfo = type { i64, i64 }
%class.JfrThreadLocal = type <{ ptr, ptr, ptr, ptr, ptr, ptr, ptr, ptr, ptr, ptr, %class.RefCountHandle, i64, i64, i64, i64, i64, i64, i64, i64, i64, i64, i64, i32, i32, i32, i16, i8, i8, i8, i8, i8, [5 x i8] }>
%class.RefCountHandle = type { ptr }
%class.JavaFrameAnchor = type { ptr, ptr, ptr }
%struct.JNIEnv_ = type { ptr }
%class.MemRegion = type { ptr, i64 }
%"struct.SafepointMechanism::ThreadData" = type { i64, i64 }
%union.anon = type { ptr }
%class.StackOverflow = type { i32, ptr, ptr, ptr, ptr, ptr, ptr }
%class.StackWatermarks = type { ptr }
%class.HandshakeState = type <{ ptr, %class.FilterQueue, %class.Monitor, ptr, i8, i8, i8, [5 x i8] }>
%class.FilterQueue = type { ptr }
%class.Monitor = type { %class.Mutex }
%class.Mutex = type { ptr, %class.PlatformMonitor, ptr }
%class.PlatformMonitor = type { %class.PlatformMutex, %union.pthread_cond_t }
%class.PlatformMutex = type { %union.pthread_mutex_t }
%union.pthread_mutex_t = type { %struct.__pthread_mutex_s }
%struct.__pthread_mutex_s = type { i32, i32, i32, i32, i32, i16, i16, %struct.__pthread_internal_list }
%struct.__pthread_internal_list = type { ptr, ptr }
%union.pthread_cond_t = type { %struct.__pthread_cond_s }
%struct.__pthread_cond_s = type { %union.__atomic_wide_counter, %union.__atomic_wide_counter, [2 x i32], [2 x i32], i32, i32, [2 x i32] }
%union.__atomic_wide_counter = type { i64 }
%class.Parker = type { %class.PlatformParker }
%class.PlatformParker = type { i32, i32, [1 x %union.pthread_mutex_t], [2 x %union.pthread_cond_t] }
%class.LockStack = type { i32, i64, [8 x ptr] }

@.str = private unnamed_addr constant [27 x i8] c"GC overhead limit exceeded\00", align 1
@.str.4 = private unnamed_addr constant [16 x i8] c"Java heap space\00", align 1
@.str.5 = private unnamed_addr constant [45 x i8] c"src/hotspot/share/gc/shared/memAllocator.cpp\00", align 1
@_ZN11JvmtiExport31_should_post_resource_exhaustedE = external global i8, align 1

; Function Attrs: mustprogress nounwind uwtable
define linkonce_odr hidden noundef zeroext i1 @_ZN11JvmtiExport30should_post_resource_exhaustedEv() #1 comdat align 2 {
  %1 = load i8, ptr @_ZN11JvmtiExport31_should_post_resource_exhaustedE, align 1
  %2 = trunc i8 %1 to i1
  ret i1 %2
}

; Function Attrs: mustprogress nounwind uwtable
define linkonce_odr hidden noundef zeroext i1 @_ZNK10JavaThread24is_in_internal_oome_markEv(ptr noundef nonnull align 8 dereferenceable(1800) %0) #1 comdat align 2 {
  %2 = alloca ptr, align 8
  store ptr %0, ptr %2, align 8
  %3 = load ptr, ptr %2, align 8
  %4 = getelementptr inbounds %class.JavaThread, ptr %3, i32 0, i32 38
  %5 = load i8, ptr %4, align 4
  %6 = trunc i8 %5 to i1
  ret i1 %6
}

; Function Attrs: mustprogress nounwind uwtable
define linkonce_odr hidden noundef ptr @_ZNK12MemAllocator10Allocation3objEv(ptr noundef nonnull align 8 dereferenceable(41) %0) #1 comdat align 2 {
  %2 = alloca ptr, align 8
  store ptr %0, ptr %2, align 8
  %3 = load ptr, ptr %2, align 8
  %4 = getelementptr inbounds %"class.MemAllocator::Allocation", ptr %3, i32 0, i32 2
  %5 = load ptr, ptr %4, align 8
  %6 = load ptr, ptr %5, align 8
  ret ptr %6
}

; Function Attrs: mustprogress nounwind uwtable
define hidden noundef zeroext i1 @_ZN12MemAllocator10Allocation19check_out_of_memoryEv(ptr noundef nonnull align 8 dereferenceable(41) %0) #1 align 2 {
  %2 = alloca i1, align 1
  %3 = alloca ptr, align 8
  %4 = alloca ptr, align 8
  %5 = alloca ptr, align 8
  %6 = alloca ptr, align 8
  store ptr %0, ptr %3, align 8
  %7 = load ptr, ptr %3, align 8
  %8 = getelementptr inbounds %"class.MemAllocator::Allocation", ptr %7, i32 0, i32 1
  %9 = load ptr, ptr %8, align 8
  store ptr %9, ptr %4, align 8
  %10 = call noundef ptr @_ZNK12MemAllocator10Allocation3objEv(ptr noundef nonnull align 8 dereferenceable(41) %7)
  %11 = icmp ne ptr %10, null
  br i1 %11, label %12, label %13

12:                                               ; preds = %1
  store i1 false, ptr %2, align 1
  br label %41

13:                                               ; preds = %1
  %14 = getelementptr inbounds %"class.MemAllocator::Allocation", ptr %7, i32 0, i32 3
  %15 = load i8, ptr %14, align 8
  %16 = trunc i8 %15 to i1
  %17 = select i1 %16, ptr @.str, ptr @.str.4
  store ptr %17, ptr %5, align 8
  %18 = getelementptr inbounds %"class.MemAllocator::Allocation", ptr %7, i32 0, i32 1
  %19 = load ptr, ptr %18, align 8
  %20 = call noundef zeroext i1 @_ZNK10JavaThread24is_in_internal_oome_markEv(ptr noundef nonnull align 8 dereferenceable(1800) %19)
  br i1 %20, label %38, label %21

21:                                               ; preds = %13
  %22 = load ptr, ptr %5, align 8
  call void @_Z25report_java_out_of_memoryPKc(ptr noundef %22)
  %23 = call noundef zeroext i1 @_ZN11JvmtiExport30should_post_resource_exhaustedEv()
  br i1 %23, label %24, label %26

24:                                               ; preds = %21
  %25 = load ptr, ptr %5, align 8
  call void @_ZN11JvmtiExport23post_resource_exhaustedEiPKc(i32 noundef 3, ptr noundef %25)
  br label %26

26:                                               ; preds = %24, %21
  %27 = getelementptr inbounds %"class.MemAllocator::Allocation", ptr %7, i32 0, i32 3
  %28 = load i8, ptr %27, align 8
  %29 = trunc i8 %28 to i1
  br i1 %29, label %30, label %32

30:                                               ; preds = %26
  %31 = call noundef ptr @_ZN8Universe37out_of_memory_error_gc_overhead_limitEv()
  br label %34

32:                                               ; preds = %26
  %33 = call noundef ptr @_ZN8Universe29out_of_memory_error_java_heapEv()
  br label %34

34:                                               ; preds = %32, %30
  %35 = phi ptr [ %31, %30 ], [ %33, %32 ]
  store ptr %35, ptr %6, align 8
  %36 = load ptr, ptr %4, align 8
  %37 = load ptr, ptr %6, align 8
  call void @_ZN10Exceptions10_throw_oopEP10JavaThreadPKciP7oopDesc(ptr noundef %36, ptr noundef @.str.5, i32 noundef 138, ptr noundef %37)
  store i1 true, ptr %2, align 1
  br label %41

38:                                               ; preds = %13
  %39 = load ptr, ptr %4, align 8
  %40 = call noundef ptr @_ZN8Universe47out_of_memory_error_java_heap_without_backtraceEv()
  call void @_ZN10Exceptions10_throw_oopEP10JavaThreadPKciP7oopDesc(ptr noundef %39, ptr noundef @.str.5, i32 noundef 140, ptr noundef %40)
  store i1 true, ptr %2, align 1
  br label %41

41:                                               ; preds = %38, %34, %12
  %42 = load i1, ptr %2, align 1
  ret i1 %42
}