; Function Attrs: mustprogress nounwind uwtable
define hidden noundef zeroext i1 @_ZN12MemAllocator10Allocation19check_out_of_memoryEv(ptr nocapture noundef nonnull readonly align 8 dereferenceable(41) %0) local_unnamed_addr #0 align 2 {
  %2 = getelementptr inbounds i8, ptr %0, i64 8
  %3 = load ptr, ptr %2, align 8
  %4 = getelementptr inbounds i8, ptr %0, i64 16
  %5 = load ptr, ptr %4, align 8
  %6 = load ptr, ptr %5, align 8
  %.not = icmp eq ptr %6, null
  br i1 %.not, label %7, label %30

7:                                                ; preds = %1
  %8 = getelementptr inbounds i8, ptr %0, i64 24
  %9 = load i8, ptr %8, align 8
  %10 = trunc i8 %9 to i1
  %11 = select i1 %10, ptr @.str, ptr @.str.4
  %12 = getelementptr inbounds i8, ptr %3, i64 1148
  %13 = load i8, ptr %12, align 4
  %14 = trunc i8 %13 to i1
  br i1 %14, label %28, label %15

15:                                               ; preds = %7
  tail call void @_Z25report_java_out_of_memoryPKc(ptr noundef nonnull %11) #10
  %16 = load i8, ptr @_ZN11JvmtiExport31_should_post_resource_exhaustedE, align 1
  %17 = trunc i8 %16 to i1
  br i1 %17, label %18, label %19

18:                                               ; preds = %15
  tail call void @_ZN11JvmtiExport23post_resource_exhaustedEiPKc(i32 noundef 3, ptr noundef nonnull %11) #10
  br label %19

19:                                               ; preds = %18, %15
  %20 = load i8, ptr %8, align 8
  %21 = trunc i8 %20 to i1
  br i1 %21, label %22, label %24

22:                                               ; preds = %19
  %23 = tail call noundef ptr @_ZN8Universe37out_of_memory_error_gc_overhead_limitEv() #10
  br label %26

24:                                               ; preds = %19
  %25 = tail call noundef ptr @_ZN8Universe29out_of_memory_error_java_heapEv() #10
  br label %26

26:                                               ; preds = %24, %22
  %27 = phi ptr [ %23, %22 ], [ %25, %24 ]
  tail call void @_ZN10Exceptions10_throw_oopEP10JavaThreadPKciP7oopDesc(ptr noundef nonnull %3, ptr noundef nonnull @.str.5, i32 noundef 138, ptr noundef %27) #10
  br label %30

28:                                               ; preds = %7
  %29 = tail call noundef ptr @_ZN8Universe47out_of_memory_error_java_heap_without_backtraceEv() #10
  tail call void @_ZN10Exceptions10_throw_oopEP10JavaThreadPKciP7oopDesc(ptr noundef nonnull %3, ptr noundef nonnull @.str.5, i32 noundef 140, ptr noundef %29) #10
  br label %30

30:                                               ; preds = %1, %28, %26
  ret i1 %.not
}